; Function Attrs: mustprogress nofree norecurse nosync nounwind willreturn memory(read, inaccessiblemem: none) uwtable
define internal { double, double } @_ZL15putp3_s_inverse5PJ_XYP8PJconsts(double %0, double %1, ptr noundef readonly captures(none) %2) #3 {
  %4 = fdiv double %1, 0x3FE988453365DE00
  %5 = getelementptr inbounds nuw i8, ptr %2, i64 88
  %6 = load ptr, ptr %5, align 8, !tbaa !3
  %7 = load double, ptr %6, align 8, !tbaa !36
  %8 = fneg double %4
  %9 = fmul double %7, %8
  %10 = tail call double @llvm.fmuladd.f64(double %9, double %4, double 1.000000e+00)
  %11 = fmul double %10, 0x3FE988453365DE00
  %12 = fdiv double %0, %11
  %.fca.0.insert = insertvalue { double, double } poison, double %12, 0
  %.fca.1.insert = insertvalue { double, double } %.fca.0.insert, double %4, 1
  ret { double, double } %.fca.1.insert
}